target datalayout = "e-m:e-p270:32:32-p271:32:32-p272:64:64-i64:64-i128:128-f80:128-n8:16:32:64-S128"
target triple = "x86_64-unknown-linux-gnu"

%"class.icu_75::ZNStringPool" = type { ptr, ptr }

@_ZN6icu_7517ZNStringPoolChunkC1Ev = unnamed_addr alias void (ptr), ptr @_ZN6icu_7517ZNStringPoolChunkC2Ev

; Function Attrs: mustprogress nounwind uwtable
define internal noundef signext i8 @_ZL9U_FAILURE10UErrorCode(i32 noundef %code) #0 {
entry:
  %code.addr = alloca i32, align 4
  store i32 %code, ptr %code.addr, align 4
  %0 = load i32, ptr %code.addr, align 4
  %cmp = icmp sgt i32 %0, 0
  %conv = zext i1 %cmp to i8
  ret i8 %conv
}

; Function Attrs: mustprogress uwtable
define void @_ZN6icu_7512ZNStringPoolC2ER10UErrorCode(ptr noundef nonnull align 8 dereferenceable(16) %this, ptr noundef nonnull align 4 dereferenceable(4) %status) unnamed_addr #1 align 2 personality ptr @__gxx_personality_v0 {
entry:
  %this.addr = alloca ptr, align 8
  %status.addr = alloca ptr, align 8
  %saved-rvalue = alloca ptr, align 8
  %cleanup.cond = alloca i1, align 1
  %exn.slot = alloca ptr, align 8
  %ehselector.slot = alloca i32, align 4
  store ptr %this, ptr %this.addr, align 8
  store ptr %status, ptr %status.addr, align 8
  %this1 = load ptr, ptr %this.addr, align 8
  %fChunks = getelementptr inbounds %"class.icu_75::ZNStringPool", ptr %this1, i32 0, i32 0
  store ptr null, ptr %fChunks, align 8
  %fHash = getelementptr inbounds %"class.icu_75::ZNStringPool", ptr %this1, i32 0, i32 1
  store ptr null, ptr %fHash, align 8
  %0 = load ptr, ptr %status.addr, align 8
  %1 = load i32, ptr %0, align 4
  %call = call noundef signext i8 @_ZL9U_FAILURE10UErrorCode(i32 noundef %1)
  %tobool = icmp ne i8 %call, 0
  br i1 %tobool, label %if.then, label %if.end

if.then:                                          ; preds = %entry
  br label %if.end12

if.end:                                           ; preds = %entry
  %call2 = call noundef ptr @_ZN6icu_757UMemorynwEm(i64 noundef 4016) #10
  %new.isnull = icmp eq ptr %call2, null
  store i1 false, ptr %cleanup.cond, align 1
  br i1 %new.isnull, label %new.cont, label %new.notnull

new.notnull:                                      ; preds = %if.end
  store ptr %call2, ptr %saved-rvalue, align 8
  store i1 true, ptr %cleanup.cond, align 1
  invoke void @_ZN6icu_7517ZNStringPoolChunkC1Ev(ptr noundef nonnull align 8 dereferenceable(4012) %call2)
          to label %invoke.cont unwind label %lpad

invoke.cont:                                      ; preds = %new.notnull
  br label %new.cont

new.cont:                                         ; preds = %invoke.cont, %if.end
  %2 = phi ptr [ %call2, %invoke.cont ], [ null, %if.end ]
  %fChunks3 = getelementptr inbounds %"class.icu_75::ZNStringPool", ptr %this1, i32 0, i32 0
  store ptr %2, ptr %fChunks3, align 8
  %fChunks4 = getelementptr inbounds %"class.icu_75::ZNStringPool", ptr %this1, i32 0, i32 0
  %3 = load ptr, ptr %fChunks4, align 8
  %cmp = icmp eq ptr %3, null
  br i1 %cmp, label %if.then5, label %if.end6

if.then5:                                         ; preds = %new.cont
  %4 = load ptr, ptr %status.addr, align 8
  store i32 7, ptr %4, align 4
  br label %if.end12

lpad:                                             ; preds = %new.notnull
  %5 = landingpad { ptr, i32 }
          cleanup
  %6 = extractvalue { ptr, i32 } %5, 0
  store ptr %6, ptr %exn.slot, align 8
  %7 = extractvalue { ptr, i32 } %5, 1
  store i32 %7, ptr %ehselector.slot, align 4
  %cleanup.is_active = load i1, ptr %cleanup.cond, align 1
  br i1 %cleanup.is_active, label %cleanup.action, label %cleanup.done

cleanup.action:                                   ; preds = %lpad
  %8 = load ptr, ptr %saved-rvalue, align 8
  call void @_ZN6icu_757UMemorydlEPv(ptr noundef %8) #10
  br label %cleanup.done

cleanup.done:                                     ; preds = %cleanup.action, %lpad
  br label %eh.resume

if.end6:                                          ; preds = %new.cont
  %9 = load ptr, ptr %status.addr, align 8
  %call7 = call ptr @uhash_open_75(ptr noundef @uhash_hashUChars_75, ptr noundef @uhash_compareUChars_75, ptr noundef @uhash_compareUChars_75, ptr noundef %9)
  %fHash8 = getelementptr inbounds %"class.icu_75::ZNStringPool", ptr %this1, i32 0, i32 1
  store ptr %call7, ptr %fHash8, align 8
  %10 = load ptr, ptr %status.addr, align 8
  %11 = load i32, ptr %10, align 4
  %call9 = call noundef signext i8 @_ZL9U_FAILURE10UErrorCode(i32 noundef %11)
  %tobool10 = icmp ne i8 %call9, 0
  br i1 %tobool10, label %if.then11, label %if.end12

if.then11:                                        ; preds = %if.end6
  br label %if.end12

if.end12:                                         ; preds = %if.then11, %if.end6, %if.then5, %if.then
  ret void

eh.resume:                                        ; preds = %cleanup.done
  %exn = load ptr, ptr %exn.slot, align 8
  %sel = load i32, ptr %ehselector.slot, align 4
  %lpad.val = insertvalue { ptr, i32 } poison, ptr %exn, 0
  %lpad.val13 = insertvalue { ptr, i32 } %lpad.val, i32 %sel, 1
  resume { ptr, i32 } %lpad.val13
}