; Function Attrs: mustprogress uwtable
define void @_ZN6icu_7512ZNStringPoolC2ER10UErrorCode(ptr nocapture noundef nonnull writeonly align 8 dereferenceable(16) %this, ptr noundef nonnull align 4 dereferenceable(4) %status) unnamed_addr #1 align 2 personality ptr @__gxx_personality_v0 {
entry:
  %fHash = getelementptr inbounds i8, ptr %this, i64 8
  tail call void @llvm.memset.p0.i64(ptr noundef nonnull align 8 dereferenceable(16) %this, i8 0, i64 16, i1 false)
  %0 = load i32, ptr %status, align 4
  %cmp.i = icmp slt i32 %0, 1
  br i1 %cmp.i, label %if.end, label %if.end12

if.end:                                           ; preds = %entry
  %call2 = tail call noundef ptr @_ZN6icu_757UMemorynwEm(i64 noundef 4016) #20
  %new.isnull = icmp eq ptr %call2, null
  br i1 %new.isnull, label %if.then5, label %new.notnull

new.notnull:                                      ; preds = %if.end
  invoke void @_ZN6icu_7517ZNStringPoolChunkC1Ev(ptr noundef nonnull align 8 dereferenceable(4012) %call2)
          to label %if.end6 unwind label %lpad

if.then5:                                         ; preds = %if.end
  store ptr null, ptr %this, align 8
  store i32 7, ptr %status, align 4
  br label %if.end12

lpad:                                             ; preds = %new.notnull
  %1 = landingpad { ptr, i32 }
          cleanup
  tail call void @_ZN6icu_757UMemorydlEPv(ptr noundef nonnull %call2) #20
  resume { ptr, i32 } %1

if.end6:                                          ; preds = %new.notnull
  store ptr %call2, ptr %this, align 8
  %call7 = tail call ptr @uhash_open_75(ptr noundef nonnull @uhash_hashUChars_75, ptr noundef nonnull @uhash_compareUChars_75, ptr noundef nonnull @uhash_compareUChars_75, ptr noundef nonnull %status)
  store ptr %call7, ptr %fHash, align 8
  br label %if.end12

if.end12:                                         ; preds = %if.end6, %entry, %if.then5
  ret void
}